; Function Attrs: mustprogress uwtable
define dso_local void @_ZN4base13HistogramBase10AddBooleanEb(ptr noundef nonnull align 8 dereferenceable(44) %this, i1 noundef zeroext %value) local_unnamed_addr #0 align 2 {
entry:
  %cond = zext i1 %value to i32
  %vtable = load ptr, ptr %this, align 8
  %vfn = getelementptr inbounds i8, ptr %vtable, i64 40
  %0 = load ptr, ptr %vfn, align 8
  tail call void %0(ptr noundef nonnull align 8 dereferenceable(44) %this, i32 noundef %cond)
  ret void
}